target datalayout = "e-m:e-p270:32:32-p271:32:32-p272:64:64-i64:64-i128:128-f80:128-n8:16:32:64-S128"
target triple = "x86_64-pc-linux-gnu"

@.str.284 = private unnamed_addr constant [32 x i8] c"maxlinelen: Can't open file %s\0A\00", align 1
@.str.285 = private unnamed_addr constant [32 x i8] c"maxlinelen: Can't read file %s\0A\00", align 1

; Function Attrs: nounwind uwtable
define internal i32 @maxlinelen(ptr noundef %0) #0 {
  %2 = alloca i32, align 4
  %3 = alloca ptr, align 8
  %4 = alloca i32, align 4
  %5 = alloca i32, align 4
  %6 = alloca i32, align 4
  %7 = alloca i32, align 4
  %8 = alloca i32, align 4
  %9 = alloca [512 x i8], align 16
  store ptr %0, ptr %3, align 8
  store i32 0, ptr %6, align 4
  store i32 0, ptr %7, align 4
  %10 = load ptr, ptr %3, align 8
  %11 = call i32 (ptr, i32, ...) @open(ptr noundef %10, i32 noundef 0)
  store i32 %11, ptr %4, align 4
  %12 = icmp eq i32 %11, -1
  br i1 %12, label %13, label %15

13:                                               ; preds = %1
  %14 = load ptr, ptr %3, align 8
  call void (i32, ptr, ...) @mprintf(i32 noundef 5, ptr noundef @.str.284, ptr noundef %14)
  store i32 -1, ptr %2, align 4
  br label %60

15:                                               ; preds = %1
  br label %16

16:                                               ; preds = %47, %15
  %17 = load i32, ptr %4, align 4
  %18 = getelementptr inbounds [512 x i8], ptr %9, i64 0, i64 0
  %19 = call i64 @read(i32 noundef %17, ptr noundef %18, i64 noundef 512)
  %20 = trunc i64 %19 to i32
  store i32 %20, ptr %5, align 4
  %21 = icmp sgt i32 %20, 0
  br i1 %21, label %22, label %48

22:                                               ; preds = %16
  store i32 0, ptr %8, align 4
  br label %23

23:                                               ; preds = %42, %22
  %24 = load i32, ptr %8, align 4
  %25 = load i32, ptr %5, align 4
  %26 = icmp slt i32 %24, %25
  br i1 %26, label %27, label %47

27:                                               ; preds = %23
  %28 = load i32, ptr %8, align 4
  %29 = sext i32 %28 to i64
  %30 = getelementptr inbounds [512 x i8], ptr %9, i64 0, i64 %29
  %31 = load i8, ptr %30, align 1
  %32 = sext i8 %31 to i32
  %33 = icmp eq i32 %32, 10
  br i1 %33, label %34, label %41

34:                                               ; preds = %27
  %35 = load i32, ptr %6, align 4
  %36 = load i32, ptr %7, align 4
  %37 = icmp sgt i32 %35, %36
  br i1 %37, label %38, label %40

38:                                               ; preds = %34
  %39 = load i32, ptr %6, align 4
  store i32 %39, ptr %7, align 4
  br label %40

40:                                               ; preds = %38, %34
  store i32 0, ptr %6, align 4
  br label %41

41:                                               ; preds = %40, %27
  br label %42

42:                                               ; preds = %41
  %43 = load i32, ptr %8, align 4
  %44 = add nsw i32 %43, 1
  store i32 %44, ptr %8, align 4
  %45 = load i32, ptr %6, align 4
  %46 = add nsw i32 %45, 1
  store i32 %46, ptr %6, align 4
  br label %23

47:                                               ; preds = %23
  br label %16

48:                                               ; preds = %16
  %49 = load i32, ptr %5, align 4
  %50 = icmp eq i32 %49, -1
  br i1 %50, label %51, label %55

51:                                               ; preds = %48
  %52 = load ptr, ptr %3, align 8
  call void (i32, ptr, ...) @mprintf(i32 noundef 5, ptr noundef @.str.285, ptr noundef %52)
  %53 = load i32, ptr %4, align 4
  %54 = call i32 @close(i32 noundef %53)
  store i32 -1, ptr %2, align 4
  br label %60

55:                                               ; preds = %48
  %56 = load i32, ptr %4, align 4
  %57 = call i32 @close(i32 noundef %56)
  %58 = load i32, ptr %7, align 4
  %59 = add nsw i32 %58, 1
  store i32 %59, ptr %2, align 4
  br label %60

60:                                               ; preds = %55, %51, %13
  %61 = load i32, ptr %2, align 4
  ret i32 %61
}