; Function Attrs: nounwind uwtable
define internal fastcc i32 @maxlinelen(ptr noundef %0) unnamed_addr #0 {
  %2 = alloca [512 x i8], align 16
  %3 = tail call i32 (ptr, i32, ...) @open(ptr noundef %0, i32 noundef 0) #25
  %4 = icmp eq i32 %3, -1
  br i1 %4, label %8, label %.preheader23

.preheader23:                                     ; preds = %1
  %5 = call i64 @read(i32 noundef %3, ptr noundef nonnull %2, i64 noundef 512) #25
  %6 = trunc i64 %5 to i32
  %7 = icmp sgt i32 %6, 0
  br i1 %7, label %.preheader, label %._crit_edge

8:                                                ; preds = %1
  tail call void (i32, ptr, ...) @mprintf(i32 noundef 5, ptr noundef nonnull @.str.284, ptr noundef %0) #25
  br label %25

.loopexit:                                        ; preds = %13
  %9 = call i64 @read(i32 noundef %3, ptr noundef nonnull %2, i64 noundef 512) #25
  %10 = trunc i64 %9 to i32
  %11 = icmp sgt i32 %10, 0
  br i1 %11, label %.preheader, label %._crit_edge.loopexit

.preheader:                                       ; preds = %.preheader23, %.loopexit
  %12 = phi i64 [ %9, %.loopexit ], [ %5, %.preheader23 ]
  %.01628 = phi i32 [ %.3, %.loopexit ], [ 0, %.preheader23 ]
  %.01727 = phi i32 [ %18, %.loopexit ], [ 0, %.preheader23 ]
  %wide.trip.count = and i64 %12, 4294967295
  br label %13

13:                                               ; preds = %.preheader, %13
  %indvars.iv = phi i64 [ 0, %.preheader ], [ %indvars.iv.next, %13 ]
  %.125 = phi i32 [ %.01628, %.preheader ], [ %.3, %13 ]
  %.11824 = phi i32 [ %.01727, %.preheader ], [ %18, %13 ]
  %14 = getelementptr inbounds [512 x i8], ptr %2, i64 0, i64 %indvars.iv
  %15 = load i8, ptr %14, align 1
  %16 = icmp eq i8 %15, 10
  %spec.select = tail call i32 @llvm.smax.i32(i32 %.11824, i32 %.125)
  %17 = add nsw i32 %.11824, 1
  %.3 = select i1 %16, i32 %spec.select, i32 %.125
  %indvars.iv.next = add nuw nsw i64 %indvars.iv, 1
  %18 = select i1 %16, i32 1, i32 %17
  %exitcond.not = icmp eq i64 %indvars.iv.next, %wide.trip.count
  br i1 %exitcond.not, label %.loopexit, label %13

._crit_edge.loopexit:                             ; preds = %.loopexit
  %19 = add nsw i32 %.3, 1
  br label %._crit_edge

._crit_edge:                                      ; preds = %._crit_edge.loopexit, %.preheader23
  %.016.lcssa = phi i32 [ 1, %.preheader23 ], [ %19, %._crit_edge.loopexit ]
  %.lcssa = phi i32 [ %6, %.preheader23 ], [ %10, %._crit_edge.loopexit ]
  %20 = icmp eq i32 %.lcssa, -1
  br i1 %20, label %21, label %23

21:                                               ; preds = %._crit_edge
  tail call void (i32, ptr, ...) @mprintf(i32 noundef 5, ptr noundef nonnull @.str.285, ptr noundef %0) #25
  %22 = tail call i32 @close(i32 noundef %3) #25
  br label %25

23:                                               ; preds = %._crit_edge
  %24 = tail call i32 @close(i32 noundef %3) #25
  br label %25

25:                                               ; preds = %23, %21, %8
  %.020 = phi i32 [ -1, %8 ], [ -1, %21 ], [ %.016.lcssa, %23 ]
  ret i32 %.020
}